target datalayout = "e-m:e-p270:32:32-p271:32:32-p272:64:64-i64:64-i128:128-f80:128-n8:16:32:64-S128"
target triple = "x86_64-pc-linux-gnu"

@.str.16 = private unnamed_addr constant [29 x i8] c"%s:%u: failed assertion \22%s\22\00", align 1
@.str.17 = private unnamed_addr constant [39 x i8] c"epan/dissectors/packet-knxip_decrypt.c\00", align 1
@.str.18 = private unnamed_addr constant [19 x i8] c"nonce_length <= 16\00", align 1

; Function Attrs: alwaysinline nounwind
define internal ptr @memset.inline(ptr %0, i32 %1, i64 %2) #2 {
  %4 = alloca ptr, align 8
  %5 = alloca i32, align 4
  %6 = alloca i64, align 8
  store ptr %0, ptr %4, align 8
  store i32 %1, ptr %5, align 4
  store i64 %2, ptr %6, align 8
  %7 = load ptr, ptr %4, align 8
  %8 = load i32, ptr %5, align 4
  %9 = load i64, ptr %6, align 8
  %10 = load ptr, ptr %4, align 8
  %11 = call i64 @llvm.objectsize.i64.p0(ptr %10, i1 false, i1 true, i1 true)
  %12 = call ptr @__memset_chk(ptr noundef %7, i32 noundef %8, i64 noundef %9, i64 noundef %11) #10
  ret ptr %12
}

; Function Attrs: alwaysinline nounwind
define internal ptr @memcpy.inline(ptr noalias %0, ptr noalias %1, i64 %2) #2 {
  %4 = alloca ptr, align 8
  %5 = alloca ptr, align 8
  %6 = alloca i64, align 8
  store ptr %0, ptr %4, align 8
  store ptr %1, ptr %5, align 8
  store i64 %2, ptr %6, align 8
  %7 = load ptr, ptr %4, align 8
  %8 = load ptr, ptr %5, align 8
  %9 = load i64, ptr %6, align 8
  %10 = load ptr, ptr %4, align 8
  %11 = call i64 @llvm.objectsize.i64.p0(ptr %10, i1 false, i1 true, i1 true)
  %12 = call ptr @__memcpy_chk(ptr noundef %7, ptr noundef %8, i64 noundef %9, i64 noundef %11) #10
  ret ptr %12
}

; Function Attrs: null_pointer_is_valid sspstrong uwtable
define internal void @build_b0(ptr noundef %0, ptr noundef %1, i8 noundef zeroext %2) #0 {
  %4 = alloca ptr, align 8
  %5 = alloca ptr, align 8
  %6 = alloca i8, align 1
  store ptr %0, ptr %4, align 8
  store ptr %1, ptr %5, align 8
  store i8 %2, ptr %6, align 1
  %7 = load i8, ptr %6, align 1
  %8 = zext i8 %7 to i32
  %9 = icmp sle i32 %8, 16
  br i1 %9, label %10, label %11

10:                                               ; preds = %3
  br label %13

11:                                               ; preds = %3
  call void (ptr, ...) @proto_report_dissector_bug(ptr noundef @.str.16, ptr noundef @.str.17, i32 noundef 50, ptr noundef @.str.18) #11
  unreachable

12:                                               ; No predecessors!
  br label %13

13:                                               ; preds = %12, %10
  %14 = load i8, ptr %6, align 1
  %15 = icmp ne i8 %14, 0
  br i1 %15, label %16, label %22

16:                                               ; preds = %13
  %17 = load ptr, ptr %4, align 8
  %18 = load ptr, ptr %5, align 8
  %19 = load i8, ptr %6, align 1
  %20 = zext i8 %19 to i64
  %21 = call ptr @memcpy.inline(ptr noundef %17, ptr noundef %18, i64 noundef %20) #10
  br label %22

22:                                               ; preds = %16, %13
  %23 = load ptr, ptr %4, align 8
  %24 = load i8, ptr %6, align 1
  %25 = zext i8 %24 to i32
  %26 = sext i32 %25 to i64
  %27 = getelementptr i8, ptr %23, i64 %26
  %28 = load i8, ptr %6, align 1
  %29 = zext i8 %28 to i32
  %30 = sub i32 16, %29
  %31 = sext i32 %30 to i64
  %32 = call ptr @memset.inline(ptr noundef %27, i32 noundef 0, i64 noundef %31) #10
  ret void
}

; Function Attrs: null_pointer_is_valid sspstrong uwtable
define internal void @build_ctr0(ptr noundef %0, ptr noundef %1, i8 noundef zeroext %2) #0 {
  %4 = alloca ptr, align 8
  %5 = alloca ptr, align 8
  %6 = alloca i8, align 1
  store ptr %0, ptr %4, align 8
  store ptr %1, ptr %5, align 8
  store i8 %2, ptr %6, align 1
  %7 = load ptr, ptr %4, align 8
  %8 = load ptr, ptr %5, align 8
  %9 = load i8, ptr %6, align 1
  call void @build_b0(ptr noundef %7, ptr noundef %8, i8 noundef zeroext %9)
  %10 = load ptr, ptr %4, align 8
  %11 = getelementptr i8, ptr %10, i64 14
  store i8 -1, ptr %11, align 1
  ret void
}

; Function Attrs: null_pointer_is_valid sspstrong uwtable
define hidden ptr @knxip_ccm_encrypt(ptr noundef %0, ptr noundef %1, ptr noundef %2, i32 noundef %3, ptr noundef %4, ptr noundef %5, i8 noundef zeroext %6) #0 {
  %8 = alloca ptr, align 8
  %9 = alloca ptr, align 8
  %10 = alloca ptr, align 8
  %11 = alloca i32, align 4
  %12 = alloca ptr, align 8
  %13 = alloca ptr, align 8
  %14 = alloca i8, align 1
  %15 = alloca [16 x i8], align 16
  store ptr %0, ptr %8, align 8
  store ptr %1, ptr %9, align 8
  store ptr %2, ptr %10, align 8
  store i32 %3, ptr %11, align 4
  store ptr %4, ptr %12, align 8
  store ptr %5, ptr %13, align 8
  store i8 %6, ptr %14, align 1
  call void @llvm.lifetime.start.p0(i64 16, ptr %15) #10
  %16 = getelementptr inbounds [16 x i8], ptr %15, i64 0, i64 0
  %17 = load ptr, ptr %13, align 8
  %18 = load i8, ptr %14, align 1
  call void @build_ctr0(ptr noundef %16, ptr noundef %17, i8 noundef zeroext %18)
  %19 = load ptr, ptr %8, align 8
  %20 = load ptr, ptr %9, align 8
  %21 = load ptr, ptr %10, align 8
  %22 = load i32, ptr %11, align 4
  %23 = load ptr, ptr %12, align 8
  %24 = getelementptr inbounds [16 x i8], ptr %15, i64 0, i64 0
  %25 = call ptr @knx_ccm_encrypt(ptr noundef %19, ptr noundef %20, ptr noundef %21, i32 noundef %22, ptr noundef %23, i8 noundef zeroext 16, ptr noundef %24, i8 noundef zeroext 16)
  call void @llvm.lifetime.end.p0(i64 16, ptr %15) #10
  ret ptr %25
}