; Function Attrs: null_pointer_is_valid sspstrong uwtable
define hidden ptr @knxip_ccm_encrypt(ptr noundef captures(address_is_null, ret: address, provenance) %0, ptr noundef %1, ptr noundef captures(address_is_null) %2, i32 noundef %3, ptr noundef captures(address_is_null) %4, ptr noundef readonly captures(none) %5, i8 noundef zeroext %6) local_unnamed_addr #0 {
  %8 = alloca [16 x i8], align 16
  call void @llvm.lifetime.start.p0(i64 16, ptr nonnull %8) #14
  %9 = icmp ult i8 %6, 17
  br i1 %9, label %11, label %10

10:                                               ; preds = %7
  tail call void (ptr, ...) @proto_report_dissector_bug(ptr noundef nonnull @.str.16, ptr noundef nonnull @.str.17, i32 noundef 50, ptr noundef nonnull @.str.18) #15
  unreachable

11:                                               ; preds = %7
  %.not.i.i = icmp eq i8 %6, 0
  br i1 %.not.i.i, label %build_ctr0.exit, label %12

12:                                               ; preds = %11
  %13 = zext nneg i8 %6 to i64
  %14 = call ptr @__memcpy_chk(ptr noundef nonnull %8, ptr noundef readonly %5, i64 noundef range(i64 1, 256) %13, i64 noundef 16) #14, !alias.scope !18
  br label %build_ctr0.exit

build_ctr0.exit:                                  ; preds = %11, %12
  %.pre-phi.i.i = phi i64 [ %13, %12 ], [ 0, %11 ]
  %15 = getelementptr i8, ptr %8, i64 %.pre-phi.i.i
  %16 = sub nuw nsw i64 16, %.pre-phi.i.i
  %17 = sub nuw nsw i64 16, %.pre-phi.i.i
  %18 = call ptr @__memset_chk(ptr noundef %15, i32 noundef 0, i64 noundef range(i64 0, 17) %16, i64 noundef %17) #14
  %19 = getelementptr inbounds nuw i8, ptr %8, i64 14
  store i8 -1, ptr %19, align 2
  %20 = call ptr @knx_ccm_encrypt(ptr noundef %0, ptr noundef %1, ptr noundef %2, i32 noundef %3, ptr noundef %4, i8 noundef zeroext 16, ptr noundef nonnull %8, i8 noundef zeroext 16)
  call void @llvm.lifetime.end.p0(i64 16, ptr nonnull %8) #14
  ret ptr %20
}